(dp0
S'n_levels'
p1
I4
sS'problem'
p2
(dp3
S'bounds'
p4
(lp5
(lp6
F300.0
aF600.0
aa(lp7
F0.015
aF0.025
aasS'num_vars'
p8
I2
sS'groups'
p9
NsS'names'
p10
(lp11
S'TSUM1'
p12
aS'SLATB_where_1'
p13
assS'n_trajectories'
p14
I10
sS'grid_jump'
p15
I2
sS'optimal_trajectories'
p16
Ns.